; Function Attrs: nounwind uwtable
define ptr @l_Lean_instantiateLCtxMVars___at_Lean_Elab_Term_runTactic___spec__3(ptr noundef readonly captures(none) %0, ptr noundef %1, ptr noundef %2, ptr noundef %3, ptr noundef %4, ptr noundef %5, ptr noundef %6, ptr noundef %7) local_unnamed_addr #0 {
  %9 = getelementptr inbounds nuw i8, ptr %0, i64 24
  %10 = load ptr, ptr %9, align 8, !tbaa !10
  %11 = load ptr, ptr @l_Lean_instantiateLCtxMVars___at_Lean_Elab_Term_runTactic___spec__3___closed__6, align 8, !tbaa !10
  %12 = getelementptr inbounds nuw i8, ptr %0, i64 16
  %13 = load ptr, ptr %12, align 8, !tbaa !10
  %14 = tail call ptr @l_Lean_PersistentArray_foldlM___at_Lean_Elab_Term_runTactic___spec__6(ptr noundef %10, ptr noundef %13, ptr noundef %11, ptr noundef nonnull inttoptr (i64 1 to ptr), ptr noundef %1, ptr noundef %2, ptr noundef %3, ptr noundef %4, ptr noundef %5, ptr noundef %6, ptr noundef %7)
  ret ptr %14
}